(dp1
S'failed'
p2
(lp3
sS'source_names'
p4
(lp5
S'apptest.py'
p6
aS'fortest.py'
p7
asS'ids'
p8
(dp9
I1
(S'D:\\untitled\\Carshare\\apptest\\apptest.py'
S'apptest'
p10
S'TestEvent.test_changepasswd'
tp11
sI2
(S'D:\\untitled\\Carshare\\apptest\\apptest.py'
g10
S'TestEvent.test_login'
tp12
sI3
(S'D:\\untitled\\Carshare\\apptest\\apptest.py'
S'apptest'
Ntp13
sI4
(S'D:\\untitled\\Carshare\\apptest\\fortest.py'
S'fortest'
p14
S'Testapp.test_1'
tp15
sI5
(S'D:\\untitled\\Carshare\\apptest\\fortest.py'
g14
S'Testapp.test_2'
tp16
sI6
(S'D:\\untitled\\Carshare\\apptest\\fortest.py'
g14
S'Testapp.test_3'
tp17
ss.